target datalayout = "e-m:e-p270:32:32-p271:32:32-p272:64:64-i64:64-i128:128-f80:128-n8:16:32:64-S128"
target triple = "x86_64-pc-linux-gnu"

%struct._lv_fragment_class_t = type { ptr, ptr, ptr, ptr, ptr, ptr, ptr, ptr, ptr, i64 }
%struct._lv_fragment_t = type { ptr, ptr, ptr, ptr }

; Function Attrs: nounwind uwtable
define ptr @lv_fragment_create(ptr noundef %0, ptr noundef %1) #0 {
  %3 = alloca ptr, align 8
  %4 = alloca ptr, align 8
  %5 = alloca ptr, align 8
  store ptr %0, ptr %3, align 8, !tbaa !3
  store ptr %1, ptr %4, align 8, !tbaa !3
  br label %6

6:                                                ; preds = %2
  %7 = load ptr, ptr %3, align 8, !tbaa !3
  %8 = icmp ne ptr %7, null
  br i1 %8, label %13, label %9

9:                                                ; preds = %6
  br label %10

10:                                               ; preds = %9
  br label %11

11:                                               ; preds = %10
  br label %12

12:                                               ; preds = %11, %12
  br label %12

13:                                               ; preds = %6
  br label %14

14:                                               ; preds = %13
  br label %15

15:                                               ; preds = %14
  %16 = load ptr, ptr %3, align 8, !tbaa !3
  %17 = getelementptr inbounds nuw %struct._lv_fragment_class_t, ptr %16, i32 0, i32 4
  %18 = load ptr, ptr %17, align 8, !tbaa !7
  %19 = icmp ne ptr %18, null
  br i1 %19, label %24, label %20

20:                                               ; preds = %15
  br label %21

21:                                               ; preds = %20
  br label %22

22:                                               ; preds = %21
  br label %23

23:                                               ; preds = %22, %23
  br label %23

24:                                               ; preds = %15
  br label %25

25:                                               ; preds = %24
  br label %26

26:                                               ; preds = %25
  %27 = load ptr, ptr %3, align 8, !tbaa !3
  %28 = getelementptr inbounds nuw %struct._lv_fragment_class_t, ptr %27, i32 0, i32 9
  %29 = load i64, ptr %28, align 8, !tbaa !10
  %30 = icmp uge i64 %29, 32
  br i1 %30, label %35, label %31

31:                                               ; preds = %26
  br label %32

32:                                               ; preds = %31
  br label %33

33:                                               ; preds = %32
  br label %34

34:                                               ; preds = %33, %34
  br label %34

35:                                               ; preds = %26
  br label %36

36:                                               ; preds = %35
  call void @llvm.lifetime.start.p0(i64 8, ptr %5) #3
  %37 = load ptr, ptr %3, align 8, !tbaa !3
  %38 = getelementptr inbounds nuw %struct._lv_fragment_class_t, ptr %37, i32 0, i32 9
  %39 = load i64, ptr %38, align 8, !tbaa !10
  %40 = call ptr @lv_malloc_zeroed(i64 noundef %39)
  store ptr %40, ptr %5, align 8, !tbaa !3
  %41 = load ptr, ptr %3, align 8, !tbaa !3
  %42 = load ptr, ptr %5, align 8, !tbaa !3
  %43 = getelementptr inbounds nuw %struct._lv_fragment_t, ptr %42, i32 0, i32 0
  store ptr %41, ptr %43, align 8, !tbaa !11
  %44 = load ptr, ptr %5, align 8, !tbaa !3
  %45 = call ptr @lv_fragment_manager_create(ptr noundef %44)
  %46 = load ptr, ptr %5, align 8, !tbaa !3
  %47 = getelementptr inbounds nuw %struct._lv_fragment_t, ptr %46, i32 0, i32 2
  store ptr %45, ptr %47, align 8, !tbaa !13
  %48 = load ptr, ptr %3, align 8, !tbaa !3
  %49 = getelementptr inbounds nuw %struct._lv_fragment_class_t, ptr %48, i32 0, i32 0
  %50 = load ptr, ptr %49, align 8, !tbaa !14
  %51 = icmp ne ptr %50, null
  br i1 %51, label %52, label %58

52:                                               ; preds = %36
  %53 = load ptr, ptr %3, align 8, !tbaa !3
  %54 = getelementptr inbounds nuw %struct._lv_fragment_class_t, ptr %53, i32 0, i32 0
  %55 = load ptr, ptr %54, align 8, !tbaa !14
  %56 = load ptr, ptr %5, align 8, !tbaa !3
  %57 = load ptr, ptr %4, align 8, !tbaa !3
  call void %55(ptr noundef %56, ptr noundef %57)
  br label %58

58:                                               ; preds = %52, %36
  %59 = load ptr, ptr %5, align 8, !tbaa !3
  call void @llvm.lifetime.end.p0(i64 8, ptr %5) #3
  ret ptr %59
}