; Function Attrs: nounwind uwtable
define noundef ptr @lv_fragment_create(ptr noundef %0, ptr noundef %1) local_unnamed_addr #0 {
  %.not = icmp eq ptr %0, null
  br i1 %.not, label %.preheader, label %3

.preheader:                                       ; preds = %2, %.preheader
  br label %.preheader

3:                                                ; preds = %2
  %4 = getelementptr inbounds nuw i8, ptr %0, i64 32
  %5 = load ptr, ptr %4, align 8, !tbaa !3
  %.not15 = icmp eq ptr %5, null
  br i1 %.not15, label %.preheader17, label %6

.preheader17:                                     ; preds = %3, %.preheader17
  br label %.preheader17

6:                                                ; preds = %3
  %7 = getelementptr inbounds nuw i8, ptr %0, i64 72
  %8 = load i64, ptr %7, align 8, !tbaa !9
  %9 = icmp ugt i64 %8, 31
  br i1 %9, label %10, label %.preheader18

.preheader18:                                     ; preds = %6, %.preheader18
  br label %.preheader18

10:                                               ; preds = %6
  %11 = tail call ptr @lv_malloc_zeroed(i64 noundef %8) #4
  store ptr %0, ptr %11, align 8, !tbaa !10
  %12 = tail call ptr @lv_fragment_manager_create(ptr noundef nonnull %11) #4
  %13 = getelementptr inbounds nuw i8, ptr %11, i64 16
  store ptr %12, ptr %13, align 8, !tbaa !12
  %14 = load ptr, ptr %0, align 8, !tbaa !13
  %.not16 = icmp eq ptr %14, null
  br i1 %.not16, label %16, label %15

15:                                               ; preds = %10
  tail call void %14(ptr noundef nonnull %11, ptr noundef %1) #4
  br label %16

16:                                               ; preds = %15, %10
  ret ptr %11
}